ccopy_reg
_reconstructor
p0
(cneat.genome
DefaultGenome
p1
c__builtin__
object
p2
Ntp3
Rp4
(dp5
S'connections'
p6
(dp7
(I-2
I2
tp8
g0
(cneat.genes
DefaultConnectionGene
p9
g2
Ntp10
Rp11
(dp12
S'enabled'
p13
I01
sS'weight'
p14
F1.1025256825736705
sS'key'
p15
g8
sbs(I-2
I0
tp16
g0
(g9
g2
Ntp17
Rp18
(dp19
g13
I01
sg14
F-1.9259846188462622
sg15
g16
sbssS'nodes'
p20
(dp21
I0
g0
(cneat.genes
DefaultNodeGene
p22
g2
Ntp23
Rp24
(dp25
S'activation'
p26
S'relu'
p27
sS'bias'
p28
F2.20319659076464
sS'response'
p29
F1.0
sg15
I0
sS'aggregation'
p30
S'sum'
p31
sbsI1
g0
(g22
g2
Ntp32
Rp33
(dp34
g26
g27
sg28
F0.0772648497925485
sg29
F1.0
sg15
I1
sg30
g31
sbsI2
g0
(g22
g2
Ntp35
Rp36
(dp37
g26
g27
sg28
F0.6814603749575401
sg29
F1.0
sg15
I2
sg30
g31
sbssg15
I11259
sS'fitness'
p38
cnumpy.core.multiarray
scalar
p39
(cnumpy
dtype
p40
(S'f8'
p41
I0
I1
tp42
Rp43
(I3
S'<'
p44
NNNI-1
I-1
I0
tp45
bS'\x00\x00\x00\x00\x00@V\xc0'
p46
tp47
Rp48
sb.