ccopy_reg
_reconstructor
p0
(cneat.genome
DefaultGenome
p1
c__builtin__
object
p2
Ntp3
Rp4
(dp5
S'connections'
p6
(dp7
(I-2
I3
tp8
g0
(cneat.genes
DefaultConnectionGene
p9
g2
Ntp10
Rp11
(dp12
S'enabled'
p13
I00
sS'weight'
p14
F0.1846111272842432
sS'key'
p15
g8
sbs(I-2
I4
tp16
g0
(g9
g2
Ntp17
Rp18
(dp19
g13
I01
sg14
F-0.5674671445717664
sg15
g16
sbs(I3
I2
tp20
g0
(g9
g2
Ntp21
Rp22
(dp23
g13
I01
sg14
F-0.014009945934124635
sg15
g20
sbs(I-2
I2
tp24
g0
(g9
g2
Ntp25
Rp26
(dp27
g13
I01
sg14
F1.8335861900582373
sg15
g24
sbs(I4
I3
tp28
g0
(g9
g2
Ntp29
Rp30
(dp31
g13
I01
sg14
F-0.11824157008726477
sg15
g28
sbssS'nodes'
p32
(dp33
I0
g0
(cneat.genes
DefaultNodeGene
p34
g2
Ntp35
Rp36
(dp37
S'activation'
p38
S'relu'
p39
sS'bias'
p40
F0.18044490099862004
sS'response'
p41
F1.0
sg15
I0
sS'aggregation'
p42
S'sum'
p43
sbsI1
g0
(g34
g2
Ntp44
Rp45
(dp46
g38
g39
sg40
F0.5211936705543976
sg41
F1.0
sg15
I1
sg42
g43
sbsI2
g0
(g34
g2
Ntp47
Rp48
(dp49
g38
g39
sg40
F-1.072218578518461
sg41
F1.0
sg15
I2
sg42
g43
sbsI3
g0
(g34
g2
Ntp50
Rp51
(dp52
g38
g39
sg40
F-1.1259262408640676
sg41
F1.0
sg15
I3
sg42
g43
sbsI4
g0
(g34
g2
Ntp53
Rp54
(dp55
g38
g39
sg40
F2.3622756156940357
sg41
F1.0
sg15
I4
sg42
g43
sbssg15
I1231
sS'fitness'
p56
cnumpy.core.multiarray
scalar
p57
(cnumpy
dtype
p58
(S'f8'
p59
I0
I1
tp60
Rp61
(I3
S'<'
p62
NNNI-1
I-1
I0
tp63
bS'\x00\x00\x00\x00\x00\x00Y\xc0'
p64
tp65
Rp66
sb.